; Function Attrs: mustprogress uwtable
define void @_ZNK8QuantLib25MakeFdHestonVanillaEnginecvN5boost10shared_ptrINS_13PricingEngineEEEEv(ptr dead_on_unwind noalias nocapture writable writeonly sret(%"class.boost::shared_ptr.17") align 8 %agg.result, ptr noundef nonnull align 8 dereferenceable(120) %this) local_unnamed_addr #8 align 2 personality ptr @__gxx_personality_v0 {
entry:
  %ref.tmp = alloca %"class.boost::shared_ptr.93", align 8
  call void @llvm.lifetime.start.p0(i64 16, ptr nonnull %ref.tmp) #26
  %schemeDesc_ = getelementptr inbounds nuw i8, ptr %this, i64 72
  %0 = load ptr, ptr %schemeDesc_, align 8, !tbaa !246
  %cmp.not.i = icmp eq ptr %0, null
  br i1 %cmp.not.i, label %cond.false.i, label %_ZN5boost10shared_ptrIN8QuantLib21FdHestonVanillaEngineEED2Ev.exit, !prof !106

cond.false.i:                                     ; preds = %entry
  tail call void @_ZN5boost16assertion_failedEPKcS1_S1_l(ptr noundef nonnull @.str.12, ptr noundef nonnull @__PRETTY_FUNCTION__._ZNK5boost10shared_ptrIN8QuantLib13FdmSchemeDescEEdeEv, ptr noundef nonnull @.str.13, i64 noundef 778)
  %.pre.i = load ptr, ptr %schemeDesc_, align 8, !tbaa !246
  br label %_ZN5boost10shared_ptrIN8QuantLib21FdHestonVanillaEngineEED2Ev.exit

_ZN5boost10shared_ptrIN8QuantLib21FdHestonVanillaEngineEED2Ev.exit: ; preds = %cond.false.i, %entry
  %1 = phi ptr [ %0, %entry ], [ %.pre.i, %cond.false.i ]
  %dampingSteps_ = getelementptr inbounds nuw i8, ptr %this, i64 64
  %vGrid_ = getelementptr inbounds nuw i8, ptr %this, i64 56
  %xGrid_ = getelementptr inbounds nuw i8, ptr %this, i64 48
  %tGrid_ = getelementptr inbounds nuw i8, ptr %this, i64 40
  %quantoHelper_ = getelementptr inbounds nuw i8, ptr %this, i64 104
  %dividends_ = getelementptr inbounds nuw i8, ptr %this, i64 16
  %leverageFct_ = getelementptr inbounds nuw i8, ptr %this, i64 88
  call void @_ZN5boost11make_sharedIN8QuantLib21FdHestonVanillaEngineEJRKNS_10shared_ptrINS1_11HestonModelEEERKSt6vectorINS3_INS1_8DividendEEESaISA_EERKNS3_INS1_15FdmQuantoHelperEEERKmSK_SK_SK_RNS1_13FdmSchemeDescERKNS3_INS1_21LocalVolTermStructureEEEEEENS_6detail15sp_if_not_arrayIT_E4typeEDpOT0_(ptr dead_on_unwind nonnull writable sret(%"class.boost::shared_ptr.93") align 8 %ref.tmp, ptr noundef nonnull align 8 dereferenceable(16) %this, ptr noundef nonnull align 8 dereferenceable(24) %dividends_, ptr noundef nonnull align 8 dereferenceable(16) %quantoHelper_, ptr noundef nonnull align 8 dereferenceable(8) %tGrid_, ptr noundef nonnull align 8 dereferenceable(8) %xGrid_, ptr noundef nonnull align 8 dereferenceable(8) %vGrid_, ptr noundef nonnull align 8 dereferenceable(8) %dampingSteps_, ptr noundef nonnull align 8 dereferenceable(24) %1, ptr noundef nonnull align 8 dereferenceable(16) %leverageFct_)
  %2 = load ptr, ptr %ref.tmp, align 8, !tbaa !248
  store ptr %2, ptr %agg.result, align 8, !tbaa !250
  %pn.i = getelementptr inbounds nuw i8, ptr %agg.result, i64 8
  %pn3.i = getelementptr inbounds nuw i8, ptr %ref.tmp, i64 8
  %3 = load ptr, ptr %pn3.i, align 8, !tbaa !37
  store ptr %3, ptr %pn.i, align 8, !tbaa !37
  call void @llvm.lifetime.end.p0(i64 16, ptr nonnull %ref.tmp) #26
  ret void
}